target datalayout = "e-m:e-p270:32:32-p271:32:32-p272:64:64-i64:64-i128:128-f80:128-n8:16:32:64-S128"
target triple = "x86_64-pc-linux-gnu"

%struct.SDL_GPUDevice = type { ptr, ptr, ptr, ptr, ptr, ptr, ptr, ptr, ptr, ptr, ptr, ptr, ptr, ptr, ptr, ptr, ptr, ptr, ptr, ptr, ptr, ptr, ptr, ptr, ptr, ptr, ptr, ptr, ptr, ptr, ptr, ptr, ptr, ptr, ptr, ptr, ptr, ptr, ptr, ptr, ptr, ptr, ptr, ptr, ptr, ptr, ptr, ptr, ptr, ptr, ptr, ptr, ptr, ptr, ptr, ptr, ptr, ptr, ptr, ptr, ptr, ptr, ptr, ptr, ptr, ptr, ptr, ptr, ptr, ptr, ptr, ptr, ptr, ptr, ptr, ptr, ptr, ptr, ptr, ptr, ptr, ptr, ptr, ptr, ptr, i32, i8 }
%struct.CommandBufferCommonHeader = type { ptr, %struct.RenderPass, i8, %struct.Pass, i8, %struct.Pass, i8, i8, i8 }
%struct.RenderPass = type { ptr, i8, [4 x ptr], i32, ptr }
%struct.Pass = type { ptr, i8 }

@.str.4 = private unnamed_addr constant [26 x i8] c"Parameter '%s' is invalid\00", align 1
@.str.8 = private unnamed_addr constant [103 x i8] c"generated/home/dtcxzyw/WorkSpace/Projects/compilers/llvm-opt-benchmark/bench/sdl/SDL/src/gpu/SDL_gpu.c\00", align 1
@.str.247 = private unnamed_addr constant [16 x i8] c"storage_buffers\00", align 1
@.str.274 = private unnamed_addr constant [13 x i8] c"compute_pass\00", align 1
@SDL_BindGPUComputeStorageBuffers_REAL.sdl_assert_data = internal global { i8, [3 x i8], i32, ptr, ptr, i32, [4 x i8], ptr, ptr } { i8 0, [3 x i8] zeroinitializer, i32 0, ptr @.str.277, ptr null, i32 0, [4 x i8] zeroinitializer, ptr null, ptr null }, align 8
@__func__.SDL_BindGPUComputeStorageBuffers_REAL = private unnamed_addr constant [38 x i8] c"SDL_BindGPUComputeStorageBuffers_REAL\00", align 1

; Function Attrs: nounwind uwtable
define hidden void @SDL_BindGPUComputeStorageBuffers_REAL(ptr noundef %0, i32 noundef %1, ptr noundef %2, i32 noundef %3) #0 {
  %5 = alloca ptr, align 8
  %6 = alloca i32, align 4
  %7 = alloca ptr, align 8
  %8 = alloca i32, align 4
  %9 = alloca i32, align 4
  %10 = alloca i32, align 4
  store ptr %0, ptr %5, align 8
  store i32 %1, ptr %6, align 4
  store ptr %2, ptr %7, align 8
  store i32 %3, ptr %8, align 4
  %11 = load ptr, ptr %5, align 8
  %12 = icmp eq ptr %11, null
  br i1 %12, label %13, label %15

13:                                               ; preds = %4
  %14 = call zeroext i1 (ptr, ...) @SDL_SetError_REAL(ptr noundef @.str.4, ptr noundef @.str.274)
  br label %69

15:                                               ; preds = %4
  %16 = load ptr, ptr %7, align 8
  %17 = icmp eq ptr %16, null
  br i1 %17, label %18, label %23

18:                                               ; preds = %15
  %19 = load i32, ptr %8, align 4
  %20 = icmp ugt i32 %19, 0
  br i1 %20, label %21, label %23

21:                                               ; preds = %18
  %22 = call zeroext i1 (ptr, ...) @SDL_SetError_REAL(ptr noundef @.str.4, ptr noundef @.str.247)
  br label %69

23:                                               ; preds = %18, %15
  %24 = load ptr, ptr %5, align 8
  %25 = getelementptr inbounds nuw %struct.Pass, ptr %24, i32 0, i32 0
  %26 = load ptr, ptr %25, align 8
  %27 = getelementptr inbounds nuw %struct.CommandBufferCommonHeader, ptr %26, i32 0, i32 0
  %28 = load ptr, ptr %27, align 8
  %29 = getelementptr inbounds nuw %struct.SDL_GPUDevice, ptr %28, i32 0, i32 86
  %30 = load i8, ptr %29, align 4, !range !5, !noundef !6
  %31 = trunc i8 %30 to i1
  br i1 %31, label %32, label %55

32:                                               ; preds = %23
  %33 = load ptr, ptr %5, align 8
  %34 = getelementptr inbounds nuw %struct.Pass, ptr %33, i32 0, i32 1
  %35 = load i8, ptr %34, align 8, !range !5, !noundef !6
  %36 = trunc i8 %35 to i1
  br i1 %36, label %54, label %37

37:                                               ; preds = %32
  br label %38

38:                                               ; preds = %37
  br label %39

39:                                               ; preds = %38, %50
  call void @llvm.lifetime.start.p0(i64 4, ptr %9) #6
  %40 = call i32 @SDL_ReportAssertion_REAL(ptr noundef @SDL_BindGPUComputeStorageBuffers_REAL.sdl_assert_data, ptr noundef @__func__.SDL_BindGPUComputeStorageBuffers_REAL, ptr noundef @.str.8, i32 noundef 2313)
  store i32 %40, ptr %9, align 4
  %41 = load i32, ptr %9, align 4
  %42 = icmp eq i32 %41, 0
  br i1 %42, label %43, label %44

43:                                               ; preds = %39
  store i32 4, ptr %10, align 4
  br label %50

44:                                               ; preds = %39
  %45 = load i32, ptr %9, align 4
  %46 = icmp eq i32 %45, 1
  br i1 %46, label %47, label %48

47:                                               ; preds = %44
  call void @llvm.debugtrap()
  br label %48

48:                                               ; preds = %47, %44
  br label %49

49:                                               ; preds = %48
  store i32 5, ptr %10, align 4
  br label %50

50:                                               ; preds = %49, %43
  call void @llvm.lifetime.end.p0(i64 4, ptr %9) #6
  %51 = load i32, ptr %10, align 4
  switch i32 %51, label %70 [
    i32 4, label %39
    i32 5, label %52
  ]

52:                                               ; preds = %50
  br label %53

53:                                               ; preds = %52
  br label %69

54:                                               ; preds = %32
  br label %55

55:                                               ; preds = %54, %23
  %56 = load ptr, ptr %5, align 8
  %57 = getelementptr inbounds nuw %struct.Pass, ptr %56, i32 0, i32 0
  %58 = load ptr, ptr %57, align 8
  %59 = getelementptr inbounds nuw %struct.CommandBufferCommonHeader, ptr %58, i32 0, i32 0
  %60 = load ptr, ptr %59, align 8
  %61 = getelementptr inbounds nuw %struct.SDL_GPUDevice, ptr %60, i32 0, i32 46
  %62 = load ptr, ptr %61, align 8
  %63 = load ptr, ptr %5, align 8
  %64 = getelementptr inbounds nuw %struct.Pass, ptr %63, i32 0, i32 0
  %65 = load ptr, ptr %64, align 8
  %66 = load i32, ptr %6, align 4
  %67 = load ptr, ptr %7, align 8
  %68 = load i32, ptr %8, align 4
  call void %62(ptr noundef %65, i32 noundef %66, ptr noundef %67, i32 noundef %68)
  br label %69

69:                                               ; preds = %55, %53, %21, %13
  ret void

70:                                               ; preds = %50
  unreachable
}